; Function Attrs: mustprogress nounwind uwtable
define void @_ZN19OpenColorIO_v2_5dev7Context18setEnvironmentModeENS_15EnvironmentModeE(ptr noundef nonnull readonly align 8 captures(none) dereferenceable(8) %0, i32 noundef %1) local_unnamed_addr #6 align 2 personality ptr @__gxx_personality_v0 {
  %3 = load ptr, ptr %0, align 8, !tbaa !61
  %4 = getelementptr inbounds nuw i8, ptr %3, i64 272
  %5 = tail call noundef i32 @pthread_mutex_lock(ptr noundef nonnull align 8 dereferenceable(40) %4) #27
  %.not.i.i = icmp eq i32 %5, 0
  br i1 %.not.i.i, label %_ZNSt10lock_guardISt5mutexEC2ERS0_.exit, label %6

6:                                                ; preds = %2
  invoke void @_ZSt20__throw_system_errori(i32 noundef %5) #29
          to label %.noexc unwind label %33

.noexc:                                           ; preds = %6
  unreachable

_ZNSt10lock_guardISt5mutexEC2ERS0_.exit:          ; preds = %2
  %7 = load ptr, ptr %0, align 8, !tbaa !61
  %8 = getelementptr inbounds nuw i8, ptr %7, i64 88
  store i32 %1, ptr %8, align 8, !tbaa !29
  %9 = getelementptr inbounds nuw i8, ptr %7, i64 176
  %10 = getelementptr inbounds nuw i8, ptr %7, i64 192
  %11 = load ptr, ptr %10, align 8, !tbaa !57
  invoke void @_ZNSt8_Rb_treeINSt7__cxx1112basic_stringIcSt11char_traitsIcESaIcEEESt4pairIKS5_S6_IS5_St3mapIS5_S5_St4lessIS5_ESaIS6_IS7_S5_EEEEESt10_Select1stISF_ESA_SaISF_EE8_M_eraseEPSt13_Rb_tree_nodeISF_E(ptr noundef nonnull align 8 dereferenceable(48) %9, ptr noundef %11)
          to label %_ZNSt3mapINSt7__cxx1112basic_stringIcSt11char_traitsIcESaIcEEESt4pairIS5_S_IS5_S5_St4lessIS5_ESaIS6_IKS5_S5_EEEES8_SaIS6_IS9_SD_EEE5clearEv.exit.i unwind label %12

12:                                               ; preds = %_ZNSt10lock_guardISt5mutexEC2ERS0_.exit
  %13 = landingpad { ptr, i32 }
          catch ptr null
  %14 = extractvalue { ptr, i32 } %13, 0
  tail call void @__clang_call_terminate(ptr %14) #30
  unreachable

_ZNSt3mapINSt7__cxx1112basic_stringIcSt11char_traitsIcESaIcEEESt4pairIS5_S_IS5_S5_St4lessIS5_ESaIS6_IKS5_S5_EEEES8_SaIS6_IS9_SD_EEE5clearEv.exit.i: ; preds = %_ZNSt10lock_guardISt5mutexEC2ERS0_.exit
  %15 = getelementptr inbounds nuw i8, ptr %7, i64 184
  store ptr null, ptr %10, align 8, !tbaa !57
  %16 = getelementptr inbounds nuw i8, ptr %7, i64 200
  store ptr %15, ptr %16, align 8, !tbaa !58
  %17 = getelementptr inbounds nuw i8, ptr %7, i64 208
  store ptr %15, ptr %17, align 8, !tbaa !59
  %18 = getelementptr inbounds nuw i8, ptr %7, i64 216
  store i64 0, ptr %18, align 8, !tbaa !60
  %19 = getelementptr inbounds nuw i8, ptr %7, i64 224
  %20 = getelementptr inbounds nuw i8, ptr %7, i64 240
  %21 = load ptr, ptr %20, align 8, !tbaa !57
  invoke void @_ZNSt8_Rb_treeINSt7__cxx1112basic_stringIcSt11char_traitsIcESaIcEEESt4pairIKS5_S6_IS5_St3mapIS5_S5_St4lessIS5_ESaIS6_IS7_S5_EEEEESt10_Select1stISF_ESA_SaISF_EE8_M_eraseEPSt13_Rb_tree_nodeISF_E(ptr noundef nonnull align 8 dereferenceable(48) %19, ptr noundef %21)
          to label %_ZN19OpenColorIO_v2_5dev7Context4Impl11clearCachesEv.exit unwind label %22

22:                                               ; preds = %_ZNSt3mapINSt7__cxx1112basic_stringIcSt11char_traitsIcESaIcEEESt4pairIS5_S_IS5_S5_St4lessIS5_ESaIS6_IKS5_S5_EEEES8_SaIS6_IS9_SD_EEE5clearEv.exit.i
  %23 = landingpad { ptr, i32 }
          catch ptr null
  %24 = extractvalue { ptr, i32 } %23, 0
  tail call void @__clang_call_terminate(ptr %24) #30
  unreachable

_ZN19OpenColorIO_v2_5dev7Context4Impl11clearCachesEv.exit: ; preds = %_ZNSt3mapINSt7__cxx1112basic_stringIcSt11char_traitsIcESaIcEEESt4pairIS5_S_IS5_S5_St4lessIS5_ESaIS6_IKS5_S5_EEEES8_SaIS6_IS9_SD_EEE5clearEv.exit.i
  %25 = getelementptr inbounds nuw i8, ptr %7, i64 232
  store ptr null, ptr %20, align 8, !tbaa !57
  %26 = getelementptr inbounds nuw i8, ptr %7, i64 248
  store ptr %25, ptr %26, align 8, !tbaa !58
  %27 = getelementptr inbounds nuw i8, ptr %7, i64 256
  store ptr %25, ptr %27, align 8, !tbaa !59
  %28 = getelementptr inbounds nuw i8, ptr %7, i64 264
  store i64 0, ptr %28, align 8, !tbaa !60
  %29 = getelementptr inbounds nuw i8, ptr %7, i64 144
  %30 = getelementptr inbounds nuw i8, ptr %7, i64 152
  store i64 0, ptr %30, align 8, !tbaa !25
  %31 = load ptr, ptr %29, align 8, !tbaa !66
  store i8 0, ptr %31, align 1, !tbaa !28
  %32 = tail call noundef i32 @pthread_mutex_unlock(ptr noundef nonnull align 8 dereferenceable(40) %4) #27
  ret void

33:                                               ; preds = %6
  %34 = landingpad { ptr, i32 }
          catch ptr null
  %35 = extractvalue { ptr, i32 } %34, 0
  tail call void @__clang_call_terminate(ptr %35) #30
  unreachable
}